; Function Attrs: mustprogress uwtable
define dso_local noundef zeroext i1 @_ZN21cmParseJacocoCoverage16LoadCoverageDataERKSt6vectorINSt7__cxx1112basic_stringIcSt11char_traitsIcESaIcEEESaIS6_EE(ptr nocapture noundef nonnull readonly align 8 dereferenceable(192) %0, ptr nocapture noundef nonnull readonly align 8 dereferenceable(24) %1) local_unnamed_addr #4 align 2 personality ptr @__gxx_personality_v0 {
  %3 = alloca %"class.cmsys::Directory", align 8
  %4 = alloca %"class.std::__cxx11::basic_string", align 8
  %5 = alloca %"class.std::__cxx11::basic_ostringstream", align 8
  %6 = alloca %"class.std::__cxx11::basic_string", align 8
  %7 = alloca %"class.std::__cxx11::basic_string", align 8
  call void @_ZN5cmsys9DirectoryC1Ev(ptr noundef nonnull align 8 dereferenceable(8) %3)
  call void @_ZNSt7__cxx1112basic_stringIcSt11char_traitsIcESaIcEEC1Ev(ptr noundef nonnull align 8 dereferenceable(32) %4) #17
  %8 = getelementptr inbounds i8, ptr %1, i64 8
  %9 = load ptr, ptr %8, align 8
  %10 = load ptr, ptr %1, align 8
  %.not = icmp eq ptr %9, %10
  br i1 %.not, label %._crit_edge, label %.lr.ph

.lr.ph:                                           ; preds = %2
  %11 = ptrtoint ptr %9 to i64
  %12 = ptrtoint ptr %10 to i64
  %13 = sub i64 %11, %12
  %14 = ashr exact i64 %13, 5
  %15 = getelementptr inbounds i8, ptr %0, i64 184
  %16 = getelementptr inbounds i8, ptr %0, i64 176
  %umax = call i64 @llvm.umax.i64(i64 %14, i64 1)
  br label %17

17:                                               ; preds = %.lr.ph, %51
  %.01216 = phi i64 [ 0, %.lr.ph ], [ %52, %51 ]
  %18 = load ptr, ptr %1, align 8
  %19 = getelementptr inbounds %"class.std::__cxx11::basic_string", ptr %18, i64 %.01216
  %20 = invoke noundef nonnull align 8 dereferenceable(32) ptr @_ZNSt7__cxx1112basic_stringIcSt11char_traitsIcESaIcEEaSERKS4_(ptr noundef nonnull align 8 dereferenceable(32) %4, ptr noundef nonnull align 8 dereferenceable(32) %19)
          to label %21 unwind label %44

21:                                               ; preds = %17
  invoke void @_ZNSt7__cxx1119basic_ostringstreamIcSt11char_traitsIcESaIcEEC1Ev(ptr noundef nonnull align 8 dereferenceable(112) %5)
          to label %22 unwind label %44

22:                                               ; preds = %21
  %23 = invoke noundef nonnull align 8 dereferenceable(8) ptr @_ZStlsISt11char_traitsIcEERSt13basic_ostreamIcT_ES5_PKc(ptr noundef nonnull align 8 dereferenceable(8) %5, ptr noundef nonnull @.str)
          to label %24 unwind label %46

24:                                               ; preds = %22
  %25 = invoke noundef nonnull align 8 dereferenceable(8) ptr @_ZStlsIcSt11char_traitsIcESaIcEERSt13basic_ostreamIT_T0_ES7_RKNSt7__cxx1112basic_stringIS4_S5_T1_EE(ptr noundef nonnull align 8 dereferenceable(8) %23, ptr noundef nonnull align 8 dereferenceable(32) %4)
          to label %26 unwind label %46

26:                                               ; preds = %24
  %27 = invoke noundef nonnull align 8 dereferenceable(8) ptr @_ZNSolsEPFRSoS_E(ptr noundef nonnull align 8 dereferenceable(8) %25, ptr noundef nonnull @_ZSt4endlIcSt11char_traitsIcEERSt13basic_ostreamIT_T0_ES6_)
          to label %28 unwind label %46

28:                                               ; preds = %26
  %29 = load ptr, ptr %15, align 8
  invoke void @_ZNKSt7__cxx1119basic_ostringstreamIcSt11char_traitsIcESaIcEE3strEv(ptr dead_on_unwind nonnull writable sret(%"class.std::__cxx11::basic_string") align 8 %6, ptr noundef nonnull align 8 dereferenceable(112) %5)
          to label %30 unwind label %46

30:                                               ; preds = %28
  %31 = call noundef ptr @_ZNKSt7__cxx1112basic_stringIcSt11char_traitsIcESaIcEE5c_strEv(ptr noundef nonnull align 8 dereferenceable(32) %6) #17
  %32 = load ptr, ptr %16, align 8
  %33 = getelementptr inbounds i8, ptr %32, i64 128
  %34 = load i8, ptr %33, align 8
  %35 = and i8 %34, 1
  %36 = icmp ne i8 %35, 0
  invoke void @_ZN7cmCTest3LogEiPKciS1_b(ptr noundef nonnull align 8 dereferenceable(8) %29, i32 noundef 5, ptr noundef nonnull @.str.1, i32 noundef 163, ptr noundef %31, i1 noundef zeroext %36)
          to label %37 unwind label %48

37:                                               ; preds = %30
  call void @_ZNSt7__cxx1112basic_stringIcSt11char_traitsIcESaIcEED1Ev(ptr noundef nonnull align 8 dereferenceable(32) %6) #17
  call void @_ZNSt7__cxx1119basic_ostringstreamIcSt11char_traitsIcESaIcEED1Ev(ptr noundef nonnull align 8 dereferenceable(112) %5) #17
  invoke void @_ZN5cmsys11SystemTools24GetFilenameLastExtensionERKNSt7__cxx1112basic_stringIcSt11char_traitsIcESaIcEEE(ptr dead_on_unwind nonnull writable sret(%"class.std::__cxx11::basic_string") align 8 %7, ptr noundef nonnull align 8 dereferenceable(32) %4)
          to label %38 unwind label %44

38:                                               ; preds = %37
  %39 = call noundef i32 @_ZNKSt7__cxx1112basic_stringIcSt11char_traitsIcESaIcEE7compareEPKc(ptr noundef nonnull align 8 dereferenceable(32) %7, ptr noundef nonnull @.str.2) #17
  %40 = icmp eq i32 %39, 0
  call void @_ZNSt7__cxx1112basic_stringIcSt11char_traitsIcESaIcEED1Ev(ptr noundef nonnull align 8 dereferenceable(32) %7) #17
  br i1 %40, label %41, label %51

41:                                               ; preds = %38
  %42 = call noundef ptr @_ZNKSt7__cxx1112basic_stringIcSt11char_traitsIcESaIcEE5c_strEv(ptr noundef nonnull align 8 dereferenceable(32) %4) #17
  %43 = invoke noundef zeroext i1 @_ZN21cmParseJacocoCoverage13ReadJacocoXMLEPKc(ptr noundef nonnull align 8 dereferenceable(192) %0, ptr noundef %42)
          to label %51 unwind label %44

44:                                               ; preds = %41, %37, %21, %17
  %45 = landingpad { ptr, i32 }
          cleanup
  br label %53

46:                                               ; preds = %28, %26, %24, %22
  %47 = landingpad { ptr, i32 }
          cleanup
  br label %50

48:                                               ; preds = %30
  %49 = landingpad { ptr, i32 }
          cleanup
  call void @_ZNSt7__cxx1112basic_stringIcSt11char_traitsIcESaIcEED1Ev(ptr noundef nonnull align 8 dereferenceable(32) %6) #17
  br label %50

50:                                               ; preds = %48, %46
  %.pn = phi { ptr, i32 } [ %49, %48 ], [ %47, %46 ]
  call void @_ZNSt7__cxx1119basic_ostringstreamIcSt11char_traitsIcESaIcEED1Ev(ptr noundef nonnull align 8 dereferenceable(112) %5) #17
  br label %53

51:                                               ; preds = %41, %38
  %52 = add nuw i64 %.01216, 1
  %exitcond.not = icmp eq i64 %52, %umax
  br i1 %exitcond.not, label %._crit_edge, label %17, !llvm.loop !5

._crit_edge:                                      ; preds = %51, %2
  call void @_ZNSt7__cxx1112basic_stringIcSt11char_traitsIcESaIcEED1Ev(ptr noundef nonnull align 8 dereferenceable(32) %4) #17
  call void @_ZN5cmsys9DirectoryD1Ev(ptr noundef nonnull align 8 dereferenceable(8) %3) #17
  ret i1 true

53:                                               ; preds = %50, %44
  %.pn14 = phi { ptr, i32 } [ %45, %44 ], [ %.pn, %50 ]
  call void @_ZNSt7__cxx1112basic_stringIcSt11char_traitsIcESaIcEED1Ev(ptr noundef nonnull align 8 dereferenceable(32) %4) #17
  call void @_ZN5cmsys9DirectoryD1Ev(ptr noundef nonnull align 8 dereferenceable(8) %3) #17
  resume { ptr, i32 } %.pn14
}